; Function Attrs: mustprogress uwtable
define hidden noundef zeroext i1 @_ZN7nanogui6Window18mouse_button_eventERKNS_5ArrayIiLm2EEEibi(ptr noundef nonnull align 8 dereferenceable(186) %0, ptr noundef nonnull align 4 dereferenceable(8) %1, i32 noundef %2, i1 noundef zeroext %3, i32 noundef %4) unnamed_addr #0 align 2 {
  %6 = tail call noundef zeroext i1 @_ZN7nanogui6Widget18mouse_button_eventERKNS_5ArrayIiLm2EEEibi(ptr noundef nonnull align 8 dereferenceable(140) %0, ptr noundef nonnull align 4 dereferenceable(8) %1, i32 noundef %2, i1 noundef zeroext %3, i32 noundef %4)
  br i1 %6, label %25, label %7

7:                                                ; preds = %5
  %8 = icmp eq i32 %2, 0
  br i1 %8, label %9, label %25

9:                                                ; preds = %7
  br i1 %3, label %10, label %22

10:                                               ; preds = %9
  %11 = getelementptr inbounds i8, ptr %1, i64 4
  %12 = load i32, ptr %11, align 4
  %13 = getelementptr inbounds i8, ptr %0, i64 44
  %14 = load i32, ptr %13, align 4
  %15 = sub nsw i32 %12, %14
  %16 = getelementptr inbounds i8, ptr %0, i64 24
  %17 = load ptr, ptr %16, align 8
  %18 = getelementptr inbounds i8, ptr %17, i64 48
  %19 = load i32, ptr %18, align 8
  %20 = icmp slt i32 %15, %19
  %21 = zext i1 %20 to i8
  br label %22

22:                                               ; preds = %10, %9
  %23 = phi i8 [ 0, %9 ], [ %21, %10 ]
  %24 = getelementptr inbounds i8, ptr %0, i64 185
  store i8 %23, ptr %24, align 1
  br label %25

25:                                               ; preds = %7, %5, %22
  %.0 = phi i1 [ true, %22 ], [ true, %5 ], [ false, %7 ]
  ret i1 %.0
}